target datalayout = "e-m:e-p270:32:32-p271:32:32-p272:64:64-i64:64-i128:128-f80:128-n8:16:32:64-S128"
target triple = "x86_64-pc-linux-gnu"

@hf_zbee_zcl_analog_value_basic_reliability = internal global i32 0, align 4
@hf_zbee_zcl_analog_value_basic_status_flags = internal global i32 0, align 4
@hf_zbee_zcl_analog_value_basic_priority_array_bool = internal global i32 0, align 4
@hf_zbee_zcl_analog_value_basic_priority_array_sing_prec = internal global i32 0, align 4
@hf_zbee_zcl_analog_value_basic_priority_array = internal global i32 0, align 4
@hf_zbee_zcl_analog_value_basic_structure = internal global i32 0, align 4
@ett_zbee_zcl_analog_value_basic_status_flags = internal global i32 0, align 4
@ett_zbee_zcl_analog_value_basic_priority_array = internal global i32 0, align 4
@ett_zbee_zcl_analog_value_basic_priority_array_structure = internal global i32 0, align 4
@.str.1415 = private unnamed_addr constant [4 x i8] c" %d\00", align 1

; Function Attrs: null_pointer_is_valid sspstrong uwtable
define internal void @dissect_zcl_analog_value_basic_attr_data(ptr noundef %0, ptr noundef %1, ptr noundef %2, i16 noundef zeroext %3, i32 noundef %4, i1 noundef zeroext %5) #0 {
  %7 = alloca ptr, align 8
  %8 = alloca ptr, align 8
  %9 = alloca ptr, align 8
  %10 = alloca i16, align 2
  %11 = alloca i32, align 4
  %12 = alloca i8, align 1
  %13 = alloca ptr, align 8
  %14 = alloca ptr, align 8
  %15 = alloca ptr, align 8
  %16 = alloca ptr, align 8
  %17 = alloca i32, align 4
  store ptr %0, ptr %7, align 8
  store ptr %1, ptr %8, align 8
  store ptr %2, ptr %9, align 8
  store i16 %3, ptr %10, align 2
  store i32 %4, ptr %11, align 4
  %18 = zext i1 %5 to i8
  store i8 %18, ptr %12, align 1
  call void @llvm.lifetime.start.p0(i64 8, ptr %13) #7
  store ptr null, ptr %13, align 8
  call void @llvm.lifetime.start.p0(i64 8, ptr %14) #7
  store ptr null, ptr %14, align 8
  call void @llvm.lifetime.start.p0(i64 8, ptr %15) #7
  store ptr null, ptr %15, align 8
  call void @llvm.lifetime.start.p0(i64 8, ptr %16) #7
  store ptr null, ptr %16, align 8
  call void @llvm.lifetime.start.p0(i64 4, ptr %17) #7
  %19 = load i16, ptr %10, align 2
  %20 = zext i16 %19 to i32
  switch i32 %20, label %90 [
    i32 87, label %21
    i32 103, label %68
    i32 111, label %78
    i32 28, label %89
    i32 81, label %89
    i32 85, label %89
    i32 104, label %89
    i32 117, label %89
    i32 256, label %89
  ]

21:                                               ; preds = %6
  %22 = load ptr, ptr %7, align 8
  %23 = load i32, ptr @hf_zbee_zcl_analog_value_basic_priority_array, align 4
  %24 = load ptr, ptr %8, align 8
  %25 = load ptr, ptr %9, align 8
  %26 = load i32, ptr %25, align 4
  %27 = call ptr @proto_tree_add_item(ptr noundef %22, i32 noundef %23, ptr noundef %24, i32 noundef %26, i32 noundef 80, i32 noundef 0)
  store ptr %27, ptr %13, align 8
  %28 = load ptr, ptr %13, align 8
  %29 = load i32, ptr @ett_zbee_zcl_analog_value_basic_priority_array, align 4
  %30 = call ptr @proto_item_add_subtree(ptr noundef %28, i32 noundef %29)
  store ptr %30, ptr %15, align 8
  store i32 1, ptr %17, align 4
  br label %31

31:                                               ; preds = %64, %21
  %32 = load i32, ptr %17, align 4
  %33 = icmp sle i32 %32, 16
  br i1 %33, label %34, label %67

34:                                               ; preds = %31
  %35 = load ptr, ptr %15, align 8
  %36 = load i32, ptr @hf_zbee_zcl_analog_value_basic_structure, align 4
  %37 = load ptr, ptr %8, align 8
  %38 = load ptr, ptr %9, align 8
  %39 = load i32, ptr %38, align 4
  %40 = call ptr @proto_tree_add_item(ptr noundef %35, i32 noundef %36, ptr noundef %37, i32 noundef %39, i32 noundef 5, i32 noundef 0)
  store ptr %40, ptr %14, align 8
  %41 = load ptr, ptr %14, align 8
  %42 = load i32, ptr %17, align 4
  call void (ptr, ptr, ...) @proto_item_append_text(ptr noundef %41, ptr noundef @.str.1415, i32 noundef %42)
  %43 = load ptr, ptr %14, align 8
  %44 = load i32, ptr @ett_zbee_zcl_analog_value_basic_priority_array_structure, align 4
  %45 = call ptr @proto_item_add_subtree(ptr noundef %43, i32 noundef %44)
  store ptr %45, ptr %16, align 8
  %46 = load ptr, ptr %16, align 8
  %47 = load i32, ptr @hf_zbee_zcl_analog_value_basic_priority_array_bool, align 4
  %48 = load ptr, ptr %8, align 8
  %49 = load ptr, ptr %9, align 8
  %50 = load i32, ptr %49, align 4
  %51 = call ptr @proto_tree_add_item(ptr noundef %46, i32 noundef %47, ptr noundef %48, i32 noundef %50, i32 noundef 1, i32 noundef -2147483648)
  %52 = load ptr, ptr %9, align 8
  %53 = load i32, ptr %52, align 4
  %54 = add i32 %53, 1
  store i32 %54, ptr %52, align 4
  %55 = load ptr, ptr %16, align 8
  %56 = load i32, ptr @hf_zbee_zcl_analog_value_basic_priority_array_sing_prec, align 4
  %57 = load ptr, ptr %8, align 8
  %58 = load ptr, ptr %9, align 8
  %59 = load i32, ptr %58, align 4
  %60 = call ptr @proto_tree_add_item(ptr noundef %55, i32 noundef %56, ptr noundef %57, i32 noundef %59, i32 noundef 4, i32 noundef -2147483648)
  %61 = load ptr, ptr %9, align 8
  %62 = load i32, ptr %61, align 4
  %63 = add i32 %62, 4
  store i32 %63, ptr %61, align 4
  br label %64

64:                                               ; preds = %34
  %65 = load i32, ptr %17, align 4
  %66 = add i32 %65, 1
  store i32 %66, ptr %17, align 4
  br label %31, !llvm.loop !10

67:                                               ; preds = %31
  br label %97

68:                                               ; preds = %6
  %69 = load ptr, ptr %7, align 8
  %70 = load i32, ptr @hf_zbee_zcl_analog_value_basic_reliability, align 4
  %71 = load ptr, ptr %8, align 8
  %72 = load ptr, ptr %9, align 8
  %73 = load i32, ptr %72, align 4
  %74 = call ptr @proto_tree_add_item(ptr noundef %69, i32 noundef %70, ptr noundef %71, i32 noundef %73, i32 noundef 1, i32 noundef 0)
  %75 = load ptr, ptr %9, align 8
  %76 = load i32, ptr %75, align 4
  %77 = add i32 %76, 1
  store i32 %77, ptr %75, align 4
  br label %97

78:                                               ; preds = %6
  %79 = load ptr, ptr %7, align 8
  %80 = load ptr, ptr %8, align 8
  %81 = load ptr, ptr %9, align 8
  %82 = load i32, ptr %81, align 4
  %83 = load i32, ptr @hf_zbee_zcl_analog_value_basic_status_flags, align 4
  %84 = load i32, ptr @ett_zbee_zcl_analog_value_basic_status_flags, align 4
  %85 = call ptr @proto_tree_add_bitmask(ptr noundef %79, ptr noundef %80, i32 noundef %82, i32 noundef %83, i32 noundef %84, ptr noundef @dissect_zcl_analog_value_basic_attr_data.status_flags, i32 noundef -2147483648)
  %86 = load ptr, ptr %9, align 8
  %87 = load i32, ptr %86, align 4
  %88 = add i32 %87, 1
  store i32 %88, ptr %86, align 4
  br label %97

89:                                               ; preds = %6, %6, %6, %6, %6, %6
  br label %90

90:                                               ; preds = %6, %89
  %91 = load ptr, ptr %8, align 8
  %92 = load ptr, ptr %7, align 8
  %93 = load ptr, ptr %9, align 8
  %94 = load i32, ptr %11, align 4
  %95 = load i8, ptr %12, align 1, !range !6, !noundef !7
  %96 = trunc i8 %95 to i1
  call void @dissect_zcl_attr_data(ptr noundef %91, ptr noundef %92, ptr noundef %93, i32 noundef %94, i1 noundef zeroext %96)
  br label %97

97:                                               ; preds = %90, %78, %68, %67
  call void @llvm.lifetime.end.p0(i64 4, ptr %17) #7
  call void @llvm.lifetime.end.p0(i64 8, ptr %16) #7
  call void @llvm.lifetime.end.p0(i64 8, ptr %15) #7
  call void @llvm.lifetime.end.p0(i64 8, ptr %14) #7
  call void @llvm.lifetime.end.p0(i64 8, ptr %13) #7
  ret void
}